(dp1
S'/dsGlobal/dsCore/shotgun/shotgunEvents/plugins'
p2
(dp3
S'autoFillFields'
p4
(I49177
(dp5
tp6
sS'connectingFields'
p7
(I49177
(dp8
tp9
sS'makeProjectFolders'
p10
(I49177
(dp11
tp12
sS'initiateProject'
p13
(I49177
(dp14
tp15
ss.